target datalayout = "e-m:e-p270:32:32-p271:32:32-p272:64:64-i64:64-i128:128-f80:128-n8:16:32:64-S128"
target triple = "x86_64-pc-linux-gnu"

%struct.bp_dtn_time_t = type { i64, %struct.nstime_t }
%struct.nstime_t = type { i64, i32 }
%struct._address = type { i32, i32, ptr, ptr }
%struct._packet_info = type { ptr, ptr, i32, i32, %struct.nstime_t, %struct.nstime_t, %struct.nstime_t, i8, ptr, ptr, ptr, ptr, %struct._address, %struct._address, %struct._address, %struct._address, %struct._address, %struct._address, i32, ptr, i8, [3 x i8], %struct.anon, i32, i32, i32, i32, ptr, i8, ptr, ptr, i16, i16, i32, i32, i16, i32, i32, ptr, ptr, ptr, i8, i8, i16, i16, i16, i32, i16, i16, ptr, ptr, ptr, ptr, ptr, i32, i32 }
%struct.anon = type { i8, [3 x i8] }
%struct.wscbor_chunk_t = type { ptr, i32, i32, i32, ptr, ptr, i32, i8, i64 }

@hf_status_assert_val = internal global i32 0, align 4
@hf_status_assert_time = internal global i32 0, align 4
@ett_status_assert = internal global i32 0, align 4

; Function Attrs: null_pointer_is_valid sspstrong uwtable
define internal zeroext i1 @dissect_status_assertion(ptr noundef %0, i32 noundef %1, ptr noundef %2, ptr noundef %3, ptr noundef %4) #2 {
  %6 = alloca ptr, align 8
  %7 = alloca i32, align 4
  %8 = alloca ptr, align 8
  %9 = alloca ptr, align 8
  %10 = alloca ptr, align 8
  %11 = alloca ptr, align 8
  %12 = alloca i8, align 1
  %13 = alloca ptr, align 8
  %14 = alloca ptr, align 8
  %15 = alloca ptr, align 8
  %16 = alloca ptr, align 8
  %17 = alloca %struct.bp_dtn_time_t, align 8
  store ptr %0, ptr %6, align 8
  store i32 %1, ptr %7, align 4
  store ptr %2, ptr %8, align 8
  store ptr %3, ptr %9, align 8
  store ptr %4, ptr %10, align 8
  call void @llvm.lifetime.start.p0(i64 8, ptr %11) #18
  %18 = load ptr, ptr %6, align 8
  %19 = load i32, ptr %7, align 4
  %20 = load ptr, ptr %9, align 8
  %21 = load ptr, ptr %10, align 8
  %22 = load i32, ptr %21, align 4
  %23 = call ptr @proto_tree_add_item(ptr noundef %18, i32 noundef %19, ptr noundef %20, i32 noundef %22, i32 noundef -1, i32 noundef 0)
  store ptr %23, ptr %11, align 8
  call void @llvm.lifetime.start.p0(i64 1, ptr %12) #18
  store i8 0, ptr %12, align 1
  call void @llvm.lifetime.start.p0(i64 8, ptr %13) #18
  %24 = load ptr, ptr %8, align 8
  %25 = getelementptr inbounds nuw %struct._packet_info, ptr %24, i32 0, i32 51
  %26 = load ptr, ptr %25, align 8
  %27 = load ptr, ptr %9, align 8
  %28 = load ptr, ptr %10, align 8
  %29 = call ptr @wscbor_chunk_read(ptr noundef %26, ptr noundef %27, ptr noundef %28)
  store ptr %29, ptr %13, align 8
  %30 = load ptr, ptr %13, align 8
  %31 = call zeroext i1 @wscbor_require_array_size(ptr noundef %30, i64 noundef 1, i64 noundef 2)
  %32 = load ptr, ptr %8, align 8
  %33 = load ptr, ptr %11, align 8
  %34 = load ptr, ptr %13, align 8
  %35 = call i64 @wscbor_chunk_mark_errors(ptr noundef %32, ptr noundef %33, ptr noundef %34)
  %36 = load ptr, ptr %8, align 8
  %37 = getelementptr inbounds nuw %struct._packet_info, ptr %36, i32 0, i32 51
  %38 = load ptr, ptr %37, align 8
  %39 = load ptr, ptr %9, align 8
  %40 = load ptr, ptr %10, align 8
  %41 = load ptr, ptr %13, align 8
  %42 = call zeroext i1 @wscbor_skip_if_errors(ptr noundef %38, ptr noundef %39, ptr noundef %40, ptr noundef %41)
  br i1 %42, label %84, label %43

43:                                               ; preds = %5
  call void @llvm.lifetime.start.p0(i64 8, ptr %14) #18
  %44 = load ptr, ptr %11, align 8
  %45 = load i32, ptr @ett_status_assert, align 4
  %46 = call ptr @proto_item_add_subtree(ptr noundef %44, i32 noundef %45)
  store ptr %46, ptr %14, align 8
  call void @llvm.lifetime.start.p0(i64 8, ptr %15) #18
  %47 = load ptr, ptr %8, align 8
  %48 = getelementptr inbounds nuw %struct._packet_info, ptr %47, i32 0, i32 51
  %49 = load ptr, ptr %48, align 8
  %50 = load ptr, ptr %9, align 8
  %51 = load ptr, ptr %10, align 8
  %52 = call ptr @wscbor_chunk_read(ptr noundef %49, ptr noundef %50, ptr noundef %51)
  store ptr %52, ptr %15, align 8
  call void @llvm.lifetime.start.p0(i64 8, ptr %16) #18
  %53 = load ptr, ptr %8, align 8
  %54 = getelementptr inbounds nuw %struct._packet_info, ptr %53, i32 0, i32 51
  %55 = load ptr, ptr %54, align 8
  %56 = load ptr, ptr %15, align 8
  %57 = call ptr @wscbor_require_boolean(ptr noundef %55, ptr noundef %56)
  store ptr %57, ptr %16, align 8
  %58 = load ptr, ptr %14, align 8
  %59 = load i32, ptr @hf_status_assert_val, align 4
  %60 = load ptr, ptr %8, align 8
  %61 = load ptr, ptr %9, align 8
  %62 = load ptr, ptr %15, align 8
  %63 = load ptr, ptr %16, align 8
  %64 = call ptr @proto_tree_add_cbor_boolean(ptr noundef %58, i32 noundef %59, ptr noundef %60, ptr noundef %61, ptr noundef %62, ptr noundef %63)
  %65 = load ptr, ptr %16, align 8
  %66 = icmp ne ptr %65, null
  br i1 %66, label %67, label %72

67:                                               ; preds = %43
  %68 = load ptr, ptr %16, align 8
  %69 = load i8, ptr %68, align 1, !range !11, !noundef !12
  %70 = trunc i8 %69 to i1
  %71 = zext i1 %70 to i8
  store i8 %71, ptr %12, align 1
  br label %72

72:                                               ; preds = %67, %43
  %73 = load ptr, ptr %13, align 8
  %74 = getelementptr inbounds nuw %struct.wscbor_chunk_t, ptr %73, i32 0, i32 8
  %75 = load i64, ptr %74, align 8
  %76 = icmp ugt i64 %75, 1
  br i1 %76, label %77, label %83

77:                                               ; preds = %72
  call void @llvm.lifetime.start.p0(i64 24, ptr %17) #18
  %78 = load ptr, ptr %14, align 8
  %79 = load i32, ptr @hf_status_assert_time, align 4
  %80 = load ptr, ptr %8, align 8
  %81 = load ptr, ptr %9, align 8
  %82 = load ptr, ptr %10, align 8
  call void @dissect_dtn_time(ptr noundef %78, i32 noundef %79, ptr noundef %80, ptr noundef %81, ptr noundef %82, ptr noundef %17)
  call void @llvm.lifetime.end.p0(i64 24, ptr %17) #18
  br label %83

83:                                               ; preds = %77, %72
  call void @llvm.lifetime.end.p0(i64 8, ptr %16) #18
  call void @llvm.lifetime.end.p0(i64 8, ptr %15) #18
  call void @llvm.lifetime.end.p0(i64 8, ptr %14) #18
  br label %84

84:                                               ; preds = %83, %5
  %85 = load ptr, ptr %11, align 8
  %86 = load ptr, ptr %10, align 8
  %87 = load i32, ptr %86, align 4
  %88 = load ptr, ptr %13, align 8
  %89 = getelementptr inbounds nuw %struct.wscbor_chunk_t, ptr %88, i32 0, i32 1
  %90 = load i32, ptr %89, align 8
  %91 = sub i32 %87, %90
  call void @proto_item_set_len(ptr noundef %85, i32 noundef %91)
  %92 = load i8, ptr %12, align 1, !range !11, !noundef !12
  %93 = trunc i8 %92 to i1
  call void @llvm.lifetime.end.p0(i64 8, ptr %13) #18
  call void @llvm.lifetime.end.p0(i64 1, ptr %12) #18
  call void @llvm.lifetime.end.p0(i64 8, ptr %11) #18
  ret i1 %93
}