; Function Attrs: null_pointer_is_valid sspstrong uwtable
define internal fastcc zeroext i1 @dissect_status_assertion(ptr noundef %0, i32 noundef %1, ptr noundef %2, ptr noundef %3, ptr noundef %4) unnamed_addr #2 {
  %6 = alloca %struct.bp_dtn_time_t, align 8
  %7 = load i32, ptr %4, align 4
  %8 = tail call ptr @proto_tree_add_item(ptr noundef %0, i32 noundef %1, ptr noundef %3, i32 noundef %7, i32 noundef -1, i32 noundef 0)
  %9 = getelementptr inbounds nuw i8, ptr %2, i64 408
  %10 = load ptr, ptr %9, align 8
  %11 = tail call ptr @wscbor_chunk_read(ptr noundef %10, ptr noundef %3, ptr noundef %4)
  %12 = tail call zeroext i1 @wscbor_require_array_size(ptr noundef %11, i64 noundef 1, i64 noundef 2)
  %13 = tail call i64 @wscbor_chunk_mark_errors(ptr noundef %2, ptr noundef %8, ptr noundef %11)
  %14 = load ptr, ptr %9, align 8
  %15 = tail call zeroext i1 @wscbor_skip_if_errors(ptr noundef %14, ptr noundef %3, ptr noundef %4, ptr noundef %11)
  br i1 %15, label %34, label %16

16:                                               ; preds = %5
  %17 = load i32, ptr @ett_status_assert, align 4
  %18 = tail call ptr @proto_item_add_subtree(ptr noundef %8, i32 noundef %17)
  %19 = load ptr, ptr %9, align 8
  %20 = tail call ptr @wscbor_chunk_read(ptr noundef %19, ptr noundef %3, ptr noundef %4)
  %21 = load ptr, ptr %9, align 8
  %22 = tail call ptr @wscbor_require_boolean(ptr noundef %21, ptr noundef %20)
  %23 = load i32, ptr @hf_status_assert_val, align 4
  %24 = tail call ptr @proto_tree_add_cbor_boolean(ptr noundef %18, i32 noundef %23, ptr noundef %2, ptr noundef %3, ptr noundef %20, ptr noundef %22)
  %.not = icmp eq ptr %22, null
  br i1 %.not, label %28, label %25

25:                                               ; preds = %16
  %26 = load i8, ptr %22, align 1, !range !14, !noundef !15
  %27 = trunc nuw i8 %26 to i1
  br label %28

28:                                               ; preds = %25, %16
  %.1 = phi i1 [ %27, %25 ], [ false, %16 ]
  %29 = getelementptr inbounds nuw i8, ptr %11, i64 48
  %30 = load i64, ptr %29, align 8
  %31 = icmp ugt i64 %30, 1
  br i1 %31, label %32, label %34

32:                                               ; preds = %28
  call void @llvm.lifetime.start.p0(i64 24, ptr nonnull %6) #19
  %33 = load i32, ptr @hf_status_assert_time, align 4
  call fastcc void @dissect_dtn_time(ptr noundef %18, i32 noundef %33, ptr noundef %2, ptr noundef %3, ptr noundef %4, ptr noundef nonnull %6)
  call void @llvm.lifetime.end.p0(i64 24, ptr nonnull %6) #19
  br label %34

34:                                               ; preds = %28, %32, %5
  %.0 = phi i1 [ false, %5 ], [ %.1, %32 ], [ %.1, %28 ]
  %35 = load i32, ptr %4, align 4
  %36 = getelementptr inbounds nuw i8, ptr %11, i64 8
  %37 = load i32, ptr %36, align 8
  %38 = sub i32 %35, %37
  call void @proto_item_set_len(ptr noundef %8, i32 noundef %38)
  ret i1 %.0
}